target datalayout = "e-m:e-p270:32:32-p271:32:32-p272:64:64-i64:64-i128:128-f80:128-n8:16:32:64-S128"
target triple = "x86_64-pc-linux-gnu"

%"class.LIEF::PE::CodeViewPDB" = type { %"class.LIEF::PE::CodeView", i32, %"struct.std::array", %"class.std::__cxx11::basic_string" }
%"class.LIEF::PE::CodeView" = type { %"class.LIEF::PE::Debug.base", i32 }
%"class.LIEF::PE::Debug.base" = type <{ %"class.LIEF::Object", i32, i32, i32, i16, i16, i32, i32, i32 }>
%"class.LIEF::Object" = type { ptr }
%"struct.std::array" = type { [16 x i8] }
%"class.std::__cxx11::basic_string" = type { %"struct.std::__cxx11::basic_string<char>::_Alloc_hider", i64, %union.anon.0 }
%"struct.std::__cxx11::basic_string<char>::_Alloc_hider" = type { ptr }
%union.anon.0 = type { i64, [8 x i8] }
%"struct.LIEF::PE::details::pe_pdb_70" = type { i32, [16 x i8], i32 }

; Function Attrs: mustprogress nounwind uwtable
define linkonce_odr hidden noundef ptr @_ZNSt11__copy_moveILb1ELb1ESt26random_access_iterator_tagE8__copy_mIhEEPT_PKS3_S6_S4_(ptr noundef %0, ptr noundef %1, ptr noundef %2) #1 comdat align 2 {
  %4 = alloca ptr, align 8
  %5 = alloca ptr, align 8
  %6 = alloca ptr, align 8
  %7 = alloca i64, align 8
  store ptr %0, ptr %4, align 8
  store ptr %1, ptr %5, align 8
  store ptr %2, ptr %6, align 8
  %8 = load ptr, ptr %5, align 8
  %9 = load ptr, ptr %4, align 8
  %10 = ptrtoint ptr %8 to i64
  %11 = ptrtoint ptr %9 to i64
  %12 = sub i64 %10, %11
  store i64 %12, ptr %7, align 8
  %13 = load i64, ptr %7, align 8
  %14 = icmp ne i64 %13, 0
  br i1 %14, label %15, label %20

15:                                               ; preds = %3
  %16 = load ptr, ptr %6, align 8
  %17 = load ptr, ptr %4, align 8
  %18 = load i64, ptr %7, align 8
  %19 = mul i64 1, %18
  call void @llvm.memmove.p0.p0.i64(ptr align 1 %16, ptr align 1 %17, i64 %19, i1 false)
  br label %20

20:                                               ; preds = %15, %3
  %21 = load ptr, ptr %6, align 8
  %22 = load i64, ptr %7, align 8
  %23 = getelementptr inbounds i8, ptr %21, i64 %22
  ret ptr %23
}

; Function Attrs: mustprogress uwtable
define linkonce_odr noundef ptr @_ZSt14__copy_move_a2ILb1EPKhPhET1_T0_S4_S3_(ptr noundef %0, ptr noundef %1, ptr noundef %2) #3 comdat {
  %4 = alloca ptr, align 8
  %5 = alloca ptr, align 8
  %6 = alloca ptr, align 8
  store ptr %0, ptr %4, align 8
  store ptr %1, ptr %5, align 8
  store ptr %2, ptr %6, align 8
  %7 = load ptr, ptr %4, align 8
  %8 = load ptr, ptr %5, align 8
  %9 = load ptr, ptr %6, align 8
  %10 = call noundef ptr @_ZNSt11__copy_moveILb1ELb1ESt26random_access_iterator_tagE8__copy_mIhEEPT_PKS3_S6_S4_(ptr noundef %7, ptr noundef %8, ptr noundef %9)
  ret ptr %10
}

; Function Attrs: mustprogress nounwind uwtable
define linkonce_odr hidden noundef ptr @_ZNSt14__array_traitsIhLm16EE6_S_ptrERA16_Kh(ptr noundef nonnull align 1 dereferenceable(16) %0) #1 comdat align 2 {
  %2 = alloca ptr, align 8
  store ptr %0, ptr %2, align 8
  %3 = load ptr, ptr %2, align 8
  %4 = getelementptr inbounds [16 x i8], ptr %3, i64 0, i64 0
  ret ptr %4
}

; Function Attrs: mustprogress nounwind uwtable
define linkonce_odr noundef ptr @_ZSt12__niter_wrapIPhET_RKS1_S1_(ptr noundef nonnull align 8 dereferenceable(8) %0, ptr noundef %1) #1 comdat {
  %3 = alloca ptr, align 8
  %4 = alloca ptr, align 8
  store ptr %0, ptr %3, align 8
  store ptr %1, ptr %4, align 8
  %5 = load ptr, ptr %4, align 8
  ret ptr %5
}

; Function Attrs: mustprogress uwtable
define linkonce_odr noundef ptr @_ZSt14__copy_move_a1ILb1EPKhPhET1_T0_S4_S3_(ptr noundef %0, ptr noundef %1, ptr noundef %2) #3 comdat {
  %4 = alloca ptr, align 8
  %5 = alloca ptr, align 8
  %6 = alloca ptr, align 8
  store ptr %0, ptr %4, align 8
  store ptr %1, ptr %5, align 8
  store ptr %2, ptr %6, align 8
  %7 = load ptr, ptr %4, align 8
  %8 = load ptr, ptr %5, align 8
  %9 = load ptr, ptr %6, align 8
  %10 = call noundef ptr @_ZSt14__copy_move_a2ILb1EPKhPhET1_T0_S4_S3_(ptr noundef %7, ptr noundef %8, ptr noundef %9)
  ret ptr %10
}

; Function Attrs: mustprogress nounwind uwtable
define linkonce_odr noundef ptr @_ZSt12__niter_baseIPhET_S1_(ptr noundef %0) #1 comdat {
  %2 = alloca ptr, align 8
  store ptr %0, ptr %2, align 8
  %3 = load ptr, ptr %2, align 8
  ret ptr %3
}

; Function Attrs: mustprogress nounwind uwtable
define linkonce_odr noundef ptr @_ZSt12__niter_baseIPKhET_S2_(ptr noundef %0) #1 comdat {
  %2 = alloca ptr, align 8
  store ptr %0, ptr %2, align 8
  %3 = load ptr, ptr %2, align 8
  ret ptr %3
}

; Function Attrs: mustprogress nounwind willreturn memory(none) uwtable
define linkonce_odr hidden noundef ptr @_ZNSt5arrayIhLm16EE4dataEv(ptr noundef nonnull align 1 dereferenceable(16) %0) #6 comdat align 2 {
  %2 = alloca ptr, align 8
  store ptr %0, ptr %2, align 8
  %3 = load ptr, ptr %2, align 8
  %4 = getelementptr inbounds %"struct.std::array", ptr %3, i32 0, i32 0
  %5 = call noundef ptr @_ZNSt14__array_traitsIhLm16EE6_S_ptrERA16_Kh(ptr noundef nonnull align 1 dereferenceable(16) %4) #16
  ret ptr %5
}

; Function Attrs: mustprogress uwtable
define linkonce_odr noundef ptr @_ZSt13__copy_move_aILb1EPKhPhET1_T0_S4_S3_(ptr noundef %0, ptr noundef %1, ptr noundef %2) #3 comdat {
  %4 = alloca ptr, align 8
  %5 = alloca ptr, align 8
  %6 = alloca ptr, align 8
  store ptr %0, ptr %4, align 8
  store ptr %1, ptr %5, align 8
  store ptr %2, ptr %6, align 8
  %7 = load ptr, ptr %4, align 8
  %8 = call noundef ptr @_ZSt12__niter_baseIPKhET_S2_(ptr noundef %7) #16
  %9 = load ptr, ptr %5, align 8
  %10 = call noundef ptr @_ZSt12__niter_baseIPKhET_S2_(ptr noundef %9) #16
  %11 = load ptr, ptr %6, align 8
  %12 = call noundef ptr @_ZSt12__niter_baseIPhET_S1_(ptr noundef %11) #16
  %13 = call noundef ptr @_ZSt14__copy_move_a1ILb1EPKhPhET1_T0_S4_S3_(ptr noundef %8, ptr noundef %10, ptr noundef %12)
  %14 = call noundef ptr @_ZSt12__niter_wrapIPhET_RKS1_S1_(ptr noundef nonnull align 8 dereferenceable(8) %6, ptr noundef %13)
  ret ptr %14
}

; Function Attrs: mustprogress nounwind uwtable
define linkonce_odr noundef ptr @_ZSt12__miter_baseIPKhET_S2_(ptr noundef %0) #1 comdat {
  %2 = alloca ptr, align 8
  store ptr %0, ptr %2, align 8
  %3 = load ptr, ptr %2, align 8
  ret ptr %3
}

; Function Attrs: mustprogress nounwind willreturn memory(none) uwtable
define linkonce_odr hidden noundef ptr @_ZNSt5arrayIhLm16EE5beginEv(ptr noundef nonnull align 1 dereferenceable(16) %0) #6 comdat align 2 {
  %2 = alloca ptr, align 8
  store ptr %0, ptr %2, align 8
  %3 = load ptr, ptr %2, align 8
  %4 = call noundef ptr @_ZNSt5arrayIhLm16EE4dataEv(ptr noundef nonnull align 1 dereferenceable(16) %3) #18
  ret ptr %4
}

; Function Attrs: mustprogress uwtable
define linkonce_odr noundef ptr @_ZSt4moveIPKhPhET0_T_S4_S3_(ptr noundef %0, ptr noundef %1, ptr noundef %2) #3 comdat {
  %4 = alloca ptr, align 8
  %5 = alloca ptr, align 8
  %6 = alloca ptr, align 8
  store ptr %0, ptr %4, align 8
  store ptr %1, ptr %5, align 8
  store ptr %2, ptr %6, align 8
  %7 = load ptr, ptr %4, align 8
  %8 = call noundef ptr @_ZSt12__miter_baseIPKhET_S2_(ptr noundef %7)
  %9 = load ptr, ptr %5, align 8
  %10 = call noundef ptr @_ZSt12__miter_baseIPKhET_S2_(ptr noundef %9)
  %11 = load ptr, ptr %6, align 8
  %12 = call noundef ptr @_ZSt13__copy_move_aILb1EPKhPhET1_T0_S4_S3_(ptr noundef %8, ptr noundef %10, ptr noundef %11)
  ret ptr %12
}

; Function Attrs: mustprogress nounwind uwtable
define linkonce_odr noundef ptr @_ZSt5beginISt5arrayIhLm16EEEDTcldtfp_5beginEERT_(ptr noundef nonnull align 1 dereferenceable(16) %0) #1 comdat {
  %2 = alloca ptr, align 8
  store ptr %0, ptr %2, align 8
  %3 = load ptr, ptr %2, align 8
  %4 = call noundef ptr @_ZNSt5arrayIhLm16EE5beginEv(ptr noundef nonnull align 1 dereferenceable(16) %3) #18
  ret ptr %4
}

; Function Attrs: mustprogress nounwind uwtable
define linkonce_odr noundef ptr @_ZSt3endIKhLm16EEPT_RAT0__S1_(ptr noundef nonnull align 1 dereferenceable(16) %0) #1 comdat {
  %2 = alloca ptr, align 8
  store ptr %0, ptr %2, align 8
  %3 = load ptr, ptr %2, align 8
  %4 = getelementptr inbounds [16 x i8], ptr %3, i64 0, i64 0
  %5 = getelementptr inbounds i8, ptr %4, i64 16
  ret ptr %5
}

; Function Attrs: mustprogress nounwind uwtable
define linkonce_odr noundef ptr @_ZSt5beginIKhLm16EEPT_RAT0__S1_(ptr noundef nonnull align 1 dereferenceable(16) %0) #1 comdat {
  %2 = alloca ptr, align 8
  store ptr %0, ptr %2, align 8
  %3 = load ptr, ptr %2, align 8
  %4 = getelementptr inbounds [16 x i8], ptr %3, i64 0, i64 0
  ret ptr %4
}

; Function Attrs: mustprogress uwtable
define void @_ZN4LIEF2PE11CodeViewPDBC2ERKNS0_7details8pe_debugERKNS2_9pe_pdb_70E(ptr noundef nonnull align 8 dereferenceable(96) %0, ptr noundef nonnull align 1 dereferenceable(28) %1, ptr noundef nonnull align 1 dereferenceable(24) %2) unnamed_addr #3 align 2 personality ptr @__gxx_personality_v0 {
  %4 = alloca ptr, align 8
  %5 = alloca ptr, align 8
  %6 = alloca ptr, align 8
  %7 = alloca ptr, align 8
  %8 = alloca i32, align 4
  store ptr %0, ptr %4, align 8
  store ptr %1, ptr %5, align 8
  store ptr %2, ptr %6, align 8
  %9 = load ptr, ptr %4, align 8
  %10 = load ptr, ptr %5, align 8
  call void @_ZN4LIEF2PE8CodeViewC2ERKNS0_7details8pe_debugENS1_10SIGNATURESE(ptr noundef nonnull align 8 dereferenceable(40) %9, ptr noundef nonnull align 1 dereferenceable(28) %10, i32 noundef 1396986706)
  store ptr getelementptr inbounds ({ [8 x ptr] }, ptr @_ZTVN4LIEF2PE11CodeViewPDBE, i32 0, i32 0, i32 2), ptr %9, align 8
  %11 = getelementptr inbounds %"class.LIEF::PE::CodeViewPDB", ptr %9, i32 0, i32 1
  %12 = load ptr, ptr %6, align 8
  %13 = getelementptr inbounds %"struct.LIEF::PE::details::pe_pdb_70", ptr %12, i32 0, i32 2
  %14 = load i32, ptr %13, align 1
  store i32 %14, ptr %11, align 8
  %15 = getelementptr inbounds %"class.LIEF::PE::CodeViewPDB", ptr %9, i32 0, i32 3
  call void @_ZNSt7__cxx1112basic_stringIcSt11char_traitsIcESaIcEEC1Ev(ptr noundef nonnull align 8 dereferenceable(32) %15) #16
  %16 = load ptr, ptr %6, align 8
  %17 = getelementptr inbounds %"struct.LIEF::PE::details::pe_pdb_70", ptr %16, i32 0, i32 1
  %18 = call noundef ptr @_ZSt5beginIKhLm16EEPT_RAT0__S1_(ptr noundef nonnull align 1 dereferenceable(16) %17) #16
  %19 = load ptr, ptr %6, align 8
  %20 = getelementptr inbounds %"struct.LIEF::PE::details::pe_pdb_70", ptr %19, i32 0, i32 1
  %21 = call noundef ptr @_ZSt3endIKhLm16EEPT_RAT0__S1_(ptr noundef nonnull align 1 dereferenceable(16) %20) #16
  %22 = getelementptr inbounds %"class.LIEF::PE::CodeViewPDB", ptr %9, i32 0, i32 2
  %23 = invoke noundef ptr @_ZSt5beginISt5arrayIhLm16EEEDTcldtfp_5beginEERT_(ptr noundef nonnull align 1 dereferenceable(16) %22)
          to label %24 unwind label %27

24:                                               ; preds = %3
  %25 = invoke noundef ptr @_ZSt4moveIPKhPhET0_T_S4_S3_(ptr noundef %18, ptr noundef %21, ptr noundef %23)
          to label %26 unwind label %27

26:                                               ; preds = %24
  ret void

27:                                               ; preds = %24, %3
  %28 = landingpad { ptr, i32 }
          cleanup
  %29 = extractvalue { ptr, i32 } %28, 0
  store ptr %29, ptr %7, align 8
  %30 = extractvalue { ptr, i32 } %28, 1
  store i32 %30, ptr %8, align 4
  call void @_ZNSt7__cxx1112basic_stringIcSt11char_traitsIcESaIcEED1Ev(ptr noundef nonnull align 8 dereferenceable(32) %15) #16
  call void @_ZN4LIEF2PE8CodeViewD2Ev(ptr noundef nonnull align 8 dereferenceable(40) %9) #16
  br label %31

31:                                               ; preds = %27
  %32 = load ptr, ptr %7, align 8
  %33 = load i32, ptr %8, align 4
  %34 = insertvalue { ptr, i32 } poison, ptr %32, 0
  %35 = insertvalue { ptr, i32 } %34, i32 %33, 1
  resume { ptr, i32 } %35
}