; Function Attrs: mustprogress uwtable
define void @_ZN4LIEF2PE11CodeViewPDBC2ERKNS0_7details8pe_debugERKNS2_9pe_pdb_70E(ptr noundef nonnull align 8 dereferenceable(96) %0, ptr noundef nonnull align 1 dereferenceable(28) %1, ptr nocapture noundef nonnull readonly align 1 dereferenceable(24) %2) unnamed_addr #3 align 2 personality ptr @__gxx_personality_v0 {
  tail call void @_ZN4LIEF2PE8CodeViewC2ERKNS0_7details8pe_debugENS1_10SIGNATURESE(ptr noundef nonnull align 8 dereferenceable(40) %0, ptr noundef nonnull align 1 dereferenceable(28) %1, i32 noundef 1396986706)
  store ptr getelementptr inbounds ({ [8 x ptr] }, ptr @_ZTVN4LIEF2PE11CodeViewPDBE, i64 0, i32 0, i64 2), ptr %0, align 8
  %4 = getelementptr inbounds i8, ptr %0, i64 40
  %5 = getelementptr inbounds i8, ptr %2, i64 20
  %6 = load i32, ptr %5, align 1
  store i32 %6, ptr %4, align 8
  %7 = getelementptr inbounds i8, ptr %0, i64 64
  tail call void @_ZNSt7__cxx1112basic_stringIcSt11char_traitsIcESaIcEEC1Ev(ptr noundef nonnull align 8 dereferenceable(32) %7) #19
  %8 = getelementptr inbounds i8, ptr %2, i64 4
  %9 = getelementptr inbounds i8, ptr %0, i64 44
  tail call void @llvm.memmove.p0.p0.i64(ptr noundef nonnull align 4 dereferenceable(16) %9, ptr noundef nonnull align 1 dereferenceable(16) %8, i64 16, i1 false)
  ret void
}